; Function Attrs: mustprogress nofree norecurse nosync nounwind willreturn memory(read, inaccessiblemem: none) uwtable
define hidden noundef nonnull align 8 dereferenceable(3556) ptr @_ZNK7datalog23finite_product_relation11get_contextEv(ptr nocapture noundef nonnull readonly align 8 dereferenceable(160) %this) local_unnamed_addr #7 align 2 {
entry:
  %m_plugin.i.i = getelementptr inbounds i8, ptr %this, i64 8
  %0 = load ptr, ptr %m_plugin.i.i, align 8
  %m_manager.i.i = getelementptr inbounds i8, ptr %0, i64 24
  %1 = load ptr, ptr %m_manager.i.i, align 8
  %m_context.i = getelementptr inbounds i8, ptr %1, i64 8
  %2 = load ptr, ptr %m_context.i, align 8
  ret ptr %2
}